target datalayout = "e-m:e-p270:32:32-p271:32:32-p272:64:64-i64:64-i128:128-f80:128-n8:16:32:64-S128"
target triple = "x86_64-pc-linux-gnu"

%struct.sct_st = type { i32, ptr, i64, ptr, i64, i64, ptr, i64, i8, i8, ptr, i64, i32, i32, i32 }

@.str = private unnamed_addr constant [30 x i8] c"../openssl/crypto/ct/ct_oct.c\00", align 1
@__func__.i2o_SCT_signature = private unnamed_addr constant [18 x i8] c"i2o_SCT_signature\00", align 1

; Function Attrs: nounwind uwtable
define i32 @i2o_SCT_signature(ptr noundef %0, ptr noundef %1) #0 {
  %3 = alloca i32, align 4
  %4 = alloca ptr, align 8
  %5 = alloca ptr, align 8
  %6 = alloca i64, align 8
  %7 = alloca ptr, align 8
  %8 = alloca ptr, align 8
  %9 = alloca i32, align 4
  store ptr %0, ptr %4, align 8, !tbaa !3
  store ptr %1, ptr %5, align 8, !tbaa !8
  call void @llvm.lifetime.start.p0(i64 8, ptr %6) #5
  call void @llvm.lifetime.start.p0(i64 8, ptr %7) #5
  store ptr null, ptr %7, align 8, !tbaa !16
  call void @llvm.lifetime.start.p0(i64 8, ptr %8) #5
  store ptr null, ptr %8, align 8, !tbaa !16
  %10 = load ptr, ptr %4, align 8, !tbaa !3
  %11 = call i32 @SCT_signature_is_complete(ptr noundef %10)
  %12 = icmp ne i32 %11, 0
  br i1 %12, label %14, label %13

13:                                               ; preds = %2
  call void @ERR_new()
  call void @ERR_set_debug(ptr noundef @.str, i32 noundef 159, ptr noundef @__func__.i2o_SCT_signature)
  call void (i32, i32, ptr, ...) @ERR_set_error(i32 noundef 50, i32 noundef 107, ptr noundef null)
  br label %85

14:                                               ; preds = %2
  %15 = load ptr, ptr %4, align 8, !tbaa !3
  %16 = getelementptr inbounds nuw %struct.sct_st, ptr %15, i32 0, i32 0
  %17 = load i32, ptr %16, align 8, !tbaa !12
  %18 = icmp ne i32 %17, 0
  br i1 %18, label %19, label %20

19:                                               ; preds = %14
  call void @ERR_new()
  call void @ERR_set_debug(ptr noundef @.str, i32 noundef 164, ptr noundef @__func__.i2o_SCT_signature)
  call void (i32, i32, ptr, ...) @ERR_set_error(i32 noundef 50, i32 noundef 103, ptr noundef null)
  br label %85

20:                                               ; preds = %14
  %21 = load ptr, ptr %4, align 8, !tbaa !3
  %22 = getelementptr inbounds nuw %struct.sct_st, ptr %21, i32 0, i32 11
  %23 = load i64, ptr %22, align 8, !tbaa !30
  %24 = add i64 4, %23
  store i64 %24, ptr %6, align 8, !tbaa !10
  %25 = load ptr, ptr %5, align 8, !tbaa !8
  %26 = icmp ne ptr %25, null
  br i1 %26, label %27, label %82

27:                                               ; preds = %20
  %28 = load ptr, ptr %5, align 8, !tbaa !8
  %29 = load ptr, ptr %28, align 8, !tbaa !16
  %30 = icmp ne ptr %29, null
  br i1 %30, label %31, label %38

31:                                               ; preds = %27
  %32 = load ptr, ptr %5, align 8, !tbaa !8
  %33 = load ptr, ptr %32, align 8, !tbaa !16
  store ptr %33, ptr %7, align 8, !tbaa !16
  %34 = load i64, ptr %6, align 8, !tbaa !10
  %35 = load ptr, ptr %5, align 8, !tbaa !8
  %36 = load ptr, ptr %35, align 8, !tbaa !16
  %37 = getelementptr inbounds nuw i8, ptr %36, i64 %34
  store ptr %37, ptr %35, align 8, !tbaa !16
  br label %47

38:                                               ; preds = %27
  %39 = load i64, ptr %6, align 8, !tbaa !10
  %40 = call noalias ptr @CRYPTO_malloc(i64 noundef %39, ptr noundef @.str, i32 noundef 180)
  store ptr %40, ptr %7, align 8, !tbaa !16
  store ptr %40, ptr %8, align 8, !tbaa !16
  %41 = load ptr, ptr %7, align 8, !tbaa !16
  %42 = icmp eq ptr %41, null
  br i1 %42, label %43, label %44

43:                                               ; preds = %38
  br label %85

44:                                               ; preds = %38
  %45 = load ptr, ptr %7, align 8, !tbaa !16
  %46 = load ptr, ptr %5, align 8, !tbaa !8
  store ptr %45, ptr %46, align 8, !tbaa !16
  br label %47

47:                                               ; preds = %44, %31
  %48 = load ptr, ptr %4, align 8, !tbaa !3
  %49 = getelementptr inbounds nuw %struct.sct_st, ptr %48, i32 0, i32 8
  %50 = load i8, ptr %49, align 8, !tbaa !18
  %51 = load ptr, ptr %7, align 8, !tbaa !16
  %52 = getelementptr inbounds nuw i8, ptr %51, i32 1
  store ptr %52, ptr %7, align 8, !tbaa !16
  store i8 %50, ptr %51, align 1, !tbaa !17
  %53 = load ptr, ptr %4, align 8, !tbaa !3
  %54 = getelementptr inbounds nuw %struct.sct_st, ptr %53, i32 0, i32 9
  %55 = load i8, ptr %54, align 1, !tbaa !19
  %56 = load ptr, ptr %7, align 8, !tbaa !16
  %57 = getelementptr inbounds nuw i8, ptr %56, i32 1
  store ptr %57, ptr %7, align 8, !tbaa !16
  store i8 %55, ptr %56, align 1, !tbaa !17
  %58 = load ptr, ptr %4, align 8, !tbaa !3
  %59 = getelementptr inbounds nuw %struct.sct_st, ptr %58, i32 0, i32 11
  %60 = load i64, ptr %59, align 8, !tbaa !30
  %61 = lshr i64 %60, 8
  %62 = and i64 %61, 255
  %63 = trunc i64 %62 to i8
  %64 = load ptr, ptr %7, align 8, !tbaa !16
  %65 = getelementptr inbounds i8, ptr %64, i64 0
  store i8 %63, ptr %65, align 1, !tbaa !17
  %66 = load ptr, ptr %4, align 8, !tbaa !3
  %67 = getelementptr inbounds nuw %struct.sct_st, ptr %66, i32 0, i32 11
  %68 = load i64, ptr %67, align 8, !tbaa !30
  %69 = and i64 %68, 255
  %70 = trunc i64 %69 to i8
  %71 = load ptr, ptr %7, align 8, !tbaa !16
  %72 = getelementptr inbounds i8, ptr %71, i64 1
  store i8 %70, ptr %72, align 1, !tbaa !17
  %73 = load ptr, ptr %7, align 8, !tbaa !16
  %74 = getelementptr inbounds i8, ptr %73, i64 2
  store ptr %74, ptr %7, align 8, !tbaa !16
  %75 = load ptr, ptr %7, align 8, !tbaa !16
  %76 = load ptr, ptr %4, align 8, !tbaa !3
  %77 = getelementptr inbounds nuw %struct.sct_st, ptr %76, i32 0, i32 10
  %78 = load ptr, ptr %77, align 8, !tbaa !31
  %79 = load ptr, ptr %4, align 8, !tbaa !3
  %80 = getelementptr inbounds nuw %struct.sct_st, ptr %79, i32 0, i32 11
  %81 = load i64, ptr %80, align 8, !tbaa !30
  call void @llvm.memcpy.p0.p0.i64(ptr align 1 %75, ptr align 1 %78, i64 %81, i1 false)
  br label %82

82:                                               ; preds = %47, %20
  %83 = load i64, ptr %6, align 8, !tbaa !10
  %84 = trunc i64 %83 to i32
  store i32 %84, ptr %3, align 4
  store i32 1, ptr %9, align 4
  br label %87

85:                                               ; preds = %43, %19, %13
  %86 = load ptr, ptr %8, align 8, !tbaa !16
  call void @CRYPTO_free(ptr noundef %86, ptr noundef @.str, i32 noundef 194)
  store i32 -1, ptr %3, align 4
  store i32 1, ptr %9, align 4
  br label %87

87:                                               ; preds = %85, %82
  call void @llvm.lifetime.end.p0(i64 8, ptr %8) #5
  call void @llvm.lifetime.end.p0(i64 8, ptr %7) #5
  call void @llvm.lifetime.end.p0(i64 8, ptr %6) #5
  %88 = load i32, ptr %3, align 4
  ret i32 %88
}