; Function Attrs: nounwind uwtable
define i32 @i2o_SCT_signature(ptr noundef %0, ptr noundef captures(address_is_null) %1) local_unnamed_addr #0 {
  %3 = tail call i32 @SCT_signature_is_complete(ptr noundef %0) #4
  %.not = icmp eq i32 %3, 0
  br i1 %.not, label %.sink.split, label %4

4:                                                ; preds = %2
  %5 = load i32, ptr %0, align 8, !tbaa !3
  %.not31 = icmp eq i32 %5, 0
  br i1 %.not31, label %6, label %.sink.split

6:                                                ; preds = %4
  %7 = getelementptr inbounds nuw i8, ptr %0, i64 80
  %8 = load i64, ptr %7, align 8, !tbaa !24
  %9 = add i64 %8, 4
  %.not32 = icmp eq ptr %1, null
  br i1 %.not32, label %34, label %10

10:                                               ; preds = %6
  %11 = load ptr, ptr %1, align 8, !tbaa !11
  %.not33 = icmp eq ptr %11, null
  br i1 %.not33, label %14, label %12

12:                                               ; preds = %10
  %13 = getelementptr inbounds nuw i8, ptr %11, i64 %9
  br label %17

14:                                               ; preds = %10
  %15 = tail call noalias ptr @CRYPTO_malloc(i64 noundef %9, ptr noundef nonnull @.str, i32 noundef 180) #4
  %16 = icmp eq ptr %15, null
  br i1 %16, label %36, label %17

17:                                               ; preds = %14, %12
  %storemerge = phi ptr [ %13, %12 ], [ %15, %14 ]
  %.026 = phi ptr [ %11, %12 ], [ %15, %14 ]
  store ptr %storemerge, ptr %1, align 8, !tbaa !11
  %18 = getelementptr inbounds nuw i8, ptr %0, i64 64
  %19 = load i8, ptr %18, align 8, !tbaa !13
  %20 = getelementptr inbounds nuw i8, ptr %.026, i64 1
  store i8 %19, ptr %.026, align 1, !tbaa !12
  %21 = getelementptr inbounds nuw i8, ptr %0, i64 65
  %22 = load i8, ptr %21, align 1, !tbaa !14
  %23 = getelementptr inbounds nuw i8, ptr %.026, i64 2
  store i8 %22, ptr %20, align 1, !tbaa !12
  %24 = load i64, ptr %7, align 8, !tbaa !24
  %25 = lshr i64 %24, 8
  %26 = trunc i64 %25 to i8
  store i8 %26, ptr %23, align 1, !tbaa !12
  %27 = load i64, ptr %7, align 8, !tbaa !24
  %28 = trunc i64 %27 to i8
  %29 = getelementptr inbounds nuw i8, ptr %.026, i64 3
  store i8 %28, ptr %29, align 1, !tbaa !12
  %30 = getelementptr inbounds nuw i8, ptr %.026, i64 4
  %31 = getelementptr inbounds nuw i8, ptr %0, i64 72
  %32 = load ptr, ptr %31, align 8, !tbaa !25
  %33 = load i64, ptr %7, align 8, !tbaa !24
  tail call void @llvm.memcpy.p0.p0.i64(ptr nonnull align 1 %30, ptr align 1 %32, i64 %33, i1 false)
  br label %34

34:                                               ; preds = %17, %6
  %35 = trunc i64 %9 to i32
  br label %37

.sink.split:                                      ; preds = %4, %2
  %.sink34 = phi i32 [ 159, %2 ], [ 164, %4 ]
  %.sink = phi i32 [ 107, %2 ], [ 103, %4 ]
  tail call void @ERR_new() #4
  tail call void @ERR_set_debug(ptr noundef nonnull @.str, i32 noundef %.sink34, ptr noundef nonnull @__func__.i2o_SCT_signature) #4
  tail call void (i32, i32, ptr, ...) @ERR_set_error(i32 noundef 50, i32 noundef %.sink, ptr noundef null) #4
  br label %36

36:                                               ; preds = %.sink.split, %14
  tail call void @CRYPTO_free(ptr noundef null, ptr noundef nonnull @.str, i32 noundef 194) #4
  br label %37

37:                                               ; preds = %36, %34
  %.027 = phi i32 [ -1, %36 ], [ %35, %34 ]
  ret i32 %.027
}